; Function Attrs: mustprogress nounwind uwtable
define dso_local void @_ZN4llvm16DwarfCompileUnit20applyLabelAttributesERKNS_8DbgLabelERNS_3DIEE(ptr noundef nonnull align 8 dereferenceable(696) %0, ptr noundef nonnull readonly align 8 captures(none) dereferenceable(48) %1, ptr noundef nonnull align 8 dereferenceable(48) %2) local_unnamed_addr #0 align 2 {
  %4 = getelementptr inbounds nuw i8, ptr %1, i64 8
  %5 = load ptr, ptr %4, align 8
  %6 = getelementptr inbounds i8, ptr %5, i64 -16
  %7 = load i64, ptr %6, align 8
  %8 = and i64 %7, 2
  %.not.i.i.i.i.i.i = icmp eq i64 %8, 0
  br i1 %.not.i.i.i.i.i.i, label %13, label %9

9:                                                ; preds = %3
  %10 = getelementptr inbounds i8, ptr %5, i64 -32
  %11 = load ptr, ptr %10, align 8
  %12 = tail call noundef i64 @_ZNK4llvm15SmallVectorBaseIjE4sizeEv(ptr noundef nonnull align 8 dereferenceable(16) %10) #23
  br label %_ZNK4llvm6DINode12getOperandAsINS_8MDStringEEEPT_j.exit.i.i.i

13:                                               ; preds = %3
  %14 = lshr i64 %7, 2
  %15 = and i64 %14, 15
  %16 = sub nsw i64 0, %15
  %17 = getelementptr inbounds %"class.llvm::MDOperand", ptr %6, i64 %16
  br label %_ZNK4llvm6DINode12getOperandAsINS_8MDStringEEEPT_j.exit.i.i.i

_ZNK4llvm6DINode12getOperandAsINS_8MDStringEEEPT_j.exit.i.i.i: ; preds = %13, %9
  %.sroa.0.0.i.i.i.i.i.i = phi ptr [ %17, %13 ], [ %11, %9 ]
  %18 = getelementptr inbounds nuw i8, ptr %.sroa.0.0.i.i.i.i.i.i, i64 8
  %19 = load ptr, ptr %18, align 8
  %.not.i.i.i = icmp eq ptr %19, null
  br i1 %.not.i.i.i, label %_ZNK4llvm8DbgLabel7getNameEv.exit.thread, label %_ZNK4llvm8DbgLabel7getNameEv.exit

_ZNK4llvm8DbgLabel7getNameEv.exit:                ; preds = %_ZNK4llvm6DINode12getOperandAsINS_8MDStringEEEPT_j.exit.i.i.i
  %20 = tail call { ptr, i64 } @_ZNK4llvm8MDString9getStringEv(ptr noundef nonnull align 8 dereferenceable(16) %19) #23
  %21 = extractvalue { ptr, i64 } %20, 1
  %22 = icmp eq i64 %21, 0
  br i1 %22, label %_ZNK4llvm8DbgLabel7getNameEv.exit.thread, label %23

23:                                               ; preds = %_ZNK4llvm8DbgLabel7getNameEv.exit
  %24 = extractvalue { ptr, i64 } %20, 0
  tail call void @_ZN4llvm9DwarfUnit9addStringERNS_3DIEENS_5dwarf9AttributeENS_9StringRefE(ptr noundef nonnull align 8 dereferenceable(328) %0, ptr noundef nonnull align 8 dereferenceable(48) %2, i16 noundef zeroext 3, ptr %24, i64 %21) #23
  br label %_ZNK4llvm8DbgLabel7getNameEv.exit.thread

_ZNK4llvm8DbgLabel7getNameEv.exit.thread:         ; preds = %_ZNK4llvm6DINode12getOperandAsINS_8MDStringEEEPT_j.exit.i.i.i, %23, %_ZNK4llvm8DbgLabel7getNameEv.exit
  %25 = load ptr, ptr %4, align 8
  tail call void @_ZN4llvm9DwarfUnit13addSourceLineERNS_3DIEEPKNS_7DILabelE(ptr noundef nonnull align 8 dereferenceable(328) %0, ptr noundef nonnull align 8 dereferenceable(48) %2, ptr noundef %25) #23
  ret void
}